target datalayout = "e-m:e-p270:32:32-p271:32:32-p272:64:64-i64:64-i128:128-f80:128-n8:16:32:64-S128"
target triple = "x86_64-pc-linux-gnu"

%struct.mbedtls_psa_aead_operation_t = type { i32, i16, i8, i8, %union.anon }
%union.anon = type { %struct.mbedtls_gcm_context }
%struct.mbedtls_gcm_context = type { %struct.mbedtls_cipher_context_t, [16 x [2 x i64]], i64, i64, [16 x i8], [16 x i8], [16 x i8], i8, i8 }
%struct.mbedtls_cipher_context_t = type { ptr, i32, i32, ptr, ptr, [16 x i8], i64, [16 x i8], i64, ptr, ptr }

; Function Attrs: nounwind uwtable
define hidden i32 @mbedtls_psa_aead_update_ad(ptr noundef %0, ptr noundef %1, i64 noundef %2) #0 {
  %4 = alloca i32, align 4
  %5 = alloca ptr, align 8
  %6 = alloca ptr, align 8
  %7 = alloca i64, align 8
  %8 = alloca i32, align 4
  %9 = alloca i32, align 4
  store ptr %0, ptr %5, align 8, !tbaa !20
  store ptr %1, ptr %6, align 8, !tbaa !8
  store i64 %2, ptr %7, align 8, !tbaa !10
  call void @llvm.lifetime.start.p0(i64 4, ptr %8) #5
  store i32 -151, ptr %8, align 4, !tbaa !12
  %10 = load ptr, ptr %5, align 8, !tbaa !20
  %11 = getelementptr inbounds nuw %struct.mbedtls_psa_aead_operation_t, ptr %10, i32 0, i32 0
  %12 = load i32, ptr %11, align 8, !tbaa !19
  %13 = icmp eq i32 %12, 89129472
  br i1 %13, label %14, label %21

14:                                               ; preds = %3
  %15 = load ptr, ptr %5, align 8, !tbaa !20
  %16 = getelementptr inbounds nuw %struct.mbedtls_psa_aead_operation_t, ptr %15, i32 0, i32 4
  %17 = load ptr, ptr %6, align 8, !tbaa !8
  %18 = load i64, ptr %7, align 8, !tbaa !10
  %19 = call i32 @mbedtls_gcm_update_ad(ptr noundef %16, ptr noundef %17, i64 noundef %18)
  %20 = call i32 @mbedtls_to_psa_error(i32 noundef %19)
  store i32 %20, ptr %8, align 4, !tbaa !12
  br label %48

21:                                               ; preds = %3
  %22 = load ptr, ptr %5, align 8, !tbaa !20
  %23 = getelementptr inbounds nuw %struct.mbedtls_psa_aead_operation_t, ptr %22, i32 0, i32 0
  %24 = load i32, ptr %23, align 8, !tbaa !19
  %25 = icmp eq i32 %24, 89129216
  br i1 %25, label %26, label %33

26:                                               ; preds = %21
  %27 = load ptr, ptr %5, align 8, !tbaa !20
  %28 = getelementptr inbounds nuw %struct.mbedtls_psa_aead_operation_t, ptr %27, i32 0, i32 4
  %29 = load ptr, ptr %6, align 8, !tbaa !8
  %30 = load i64, ptr %7, align 8, !tbaa !10
  %31 = call i32 @mbedtls_ccm_update_ad(ptr noundef %28, ptr noundef %29, i64 noundef %30)
  %32 = call i32 @mbedtls_to_psa_error(i32 noundef %31)
  store i32 %32, ptr %8, align 4, !tbaa !12
  br label %47

33:                                               ; preds = %21
  %34 = load ptr, ptr %5, align 8, !tbaa !20
  %35 = getelementptr inbounds nuw %struct.mbedtls_psa_aead_operation_t, ptr %34, i32 0, i32 0
  %36 = load i32, ptr %35, align 8, !tbaa !19
  %37 = icmp eq i32 %36, 84935936
  br i1 %37, label %38, label %45

38:                                               ; preds = %33
  %39 = load ptr, ptr %5, align 8, !tbaa !20
  %40 = getelementptr inbounds nuw %struct.mbedtls_psa_aead_operation_t, ptr %39, i32 0, i32 4
  %41 = load ptr, ptr %6, align 8, !tbaa !8
  %42 = load i64, ptr %7, align 8, !tbaa !10
  %43 = call i32 @mbedtls_chachapoly_update_aad(ptr noundef %40, ptr noundef %41, i64 noundef %42)
  %44 = call i32 @mbedtls_to_psa_error(i32 noundef %43)
  store i32 %44, ptr %8, align 4, !tbaa !12
  br label %46

45:                                               ; preds = %33
  store i32 -134, ptr %4, align 4
  store i32 1, ptr %9, align 4
  br label %50

46:                                               ; preds = %38
  br label %47

47:                                               ; preds = %46, %26
  br label %48

48:                                               ; preds = %47, %14
  %49 = load i32, ptr %8, align 4, !tbaa !12
  store i32 %49, ptr %4, align 4
  store i32 1, ptr %9, align 4
  br label %50

50:                                               ; preds = %48, %45
  call void @llvm.lifetime.end.p0(i64 4, ptr %8) #5
  %51 = load i32, ptr %4, align 4
  ret i32 %51
}