; Function Attrs: nounwind uwtable
define hidden i32 @mbedtls_psa_aead_update_ad(ptr noundef %0, ptr noundef %1, i64 noundef %2) local_unnamed_addr #0 {
  %4 = load i32, ptr %0, align 8, !tbaa !9
  switch i32 %4, label %15 [
    i32 89129472, label %5
    i32 89129216, label %8
    i32 84935936, label %11
  ]

5:                                                ; preds = %3
  %6 = getelementptr inbounds nuw i8, ptr %0, i64 8
  %7 = tail call i32 @mbedtls_gcm_update_ad(ptr noundef nonnull %6, ptr noundef %1, i64 noundef %2) #4
  br label %.sink.split

8:                                                ; preds = %3
  %9 = getelementptr inbounds nuw i8, ptr %0, i64 8
  %10 = tail call i32 @mbedtls_ccm_update_ad(ptr noundef nonnull %9, ptr noundef %1, i64 noundef %2) #4
  br label %.sink.split

11:                                               ; preds = %3
  %12 = getelementptr inbounds nuw i8, ptr %0, i64 8
  %13 = tail call i32 @mbedtls_chachapoly_update_aad(ptr noundef nonnull %12, ptr noundef %1, i64 noundef %2) #4
  br label %.sink.split

.sink.split:                                      ; preds = %8, %11, %5
  %.sink = phi i32 [ %7, %5 ], [ %13, %11 ], [ %10, %8 ]
  %14 = tail call i32 @mbedtls_to_psa_error(i32 noundef %.sink) #4
  br label %15

15:                                               ; preds = %.sink.split, %3
  %.013 = phi i32 [ -134, %3 ], [ %14, %.sink.split ]
  ret i32 %.013
}